target datalayout = "e-m:e-p270:32:32-p271:32:32-p272:64:64-i64:64-i128:128-f80:128-n8:16:32:64-S128"
target triple = "x86_64-pc-linux-gnu"

%struct.Rwr_Man_t_ = type { i32, ptr, ptr, ptr, ptr, ptr, ptr, ptr, ptr, ptr, ptr, ptr, i32, i32, i32, i32, i32, ptr, ptr, ptr, ptr, ptr, i32, i32, i32, i32, i32, [222 x i32], i32, i32, i32, i64, i64, i64, i64, i64, i64, i64 }
%struct.Rwr_Node_t_ = type <{ i32, i32, i16, i16, i16, i32, [6 x i8], ptr, ptr, ptr }>
%struct.Vec_Ptr_t_ = type { i32, i32, ptr }

; Function Attrs: inlinehint nounwind uwtable
define internal void @Vec_PtrGrow(ptr noundef %0, i32 noundef %1) #2 {
  %3 = alloca ptr, align 8
  %4 = alloca i32, align 4
  store ptr %0, ptr %3, align 8, !tbaa !39
  store i32 %1, ptr %4, align 4, !tbaa !8
  %5 = load ptr, ptr %3, align 8, !tbaa !39
  %6 = getelementptr inbounds nuw %struct.Vec_Ptr_t_, ptr %5, i32 0, i32 0
  %7 = load i32, ptr %6, align 8, !tbaa !53
  %8 = load i32, ptr %4, align 4, !tbaa !8
  %9 = icmp sge i32 %7, %8
  br i1 %9, label %10, label %11

10:                                               ; preds = %2
  br label %36

11:                                               ; preds = %2
  %12 = load ptr, ptr %3, align 8, !tbaa !39
  %13 = getelementptr inbounds nuw %struct.Vec_Ptr_t_, ptr %12, i32 0, i32 2
  %14 = load ptr, ptr %13, align 8, !tbaa !34
  %15 = icmp ne ptr %14, null
  br i1 %15, label %16, label %24

16:                                               ; preds = %11
  %17 = load ptr, ptr %3, align 8, !tbaa !39
  %18 = getelementptr inbounds nuw %struct.Vec_Ptr_t_, ptr %17, i32 0, i32 2
  %19 = load ptr, ptr %18, align 8, !tbaa !34
  %20 = load i32, ptr %4, align 4, !tbaa !8
  %21 = sext i32 %20 to i64
  %22 = mul i64 8, %21
  %23 = call ptr @realloc(ptr noundef %19, i64 noundef %22) #7
  br label %29

24:                                               ; preds = %11
  %25 = load i32, ptr %4, align 4, !tbaa !8
  %26 = sext i32 %25 to i64
  %27 = mul i64 8, %26
  %28 = call noalias ptr @malloc(i64 noundef %27) #8
  br label %29

29:                                               ; preds = %24, %16
  %30 = phi ptr [ %23, %16 ], [ %28, %24 ]
  %31 = load ptr, ptr %3, align 8, !tbaa !39
  %32 = getelementptr inbounds nuw %struct.Vec_Ptr_t_, ptr %31, i32 0, i32 2
  store ptr %30, ptr %32, align 8, !tbaa !34
  %33 = load i32, ptr %4, align 4, !tbaa !8
  %34 = load ptr, ptr %3, align 8, !tbaa !39
  %35 = getelementptr inbounds nuw %struct.Vec_Ptr_t_, ptr %34, i32 0, i32 0
  store i32 %33, ptr %35, align 8, !tbaa !53
  br label %36

36:                                               ; preds = %29, %10
  ret void
}

; Function Attrs: inlinehint nounwind uwtable
define internal void @Vec_PtrPush(ptr noundef %0, ptr noundef %1) #2 {
  %3 = alloca ptr, align 8
  %4 = alloca ptr, align 8
  store ptr %0, ptr %3, align 8, !tbaa !39
  store ptr %1, ptr %4, align 8, !tbaa !35
  %5 = load ptr, ptr %3, align 8, !tbaa !39
  %6 = getelementptr inbounds nuw %struct.Vec_Ptr_t_, ptr %5, i32 0, i32 1
  %7 = load i32, ptr %6, align 4, !tbaa !24
  %8 = load ptr, ptr %3, align 8, !tbaa !39
  %9 = getelementptr inbounds nuw %struct.Vec_Ptr_t_, ptr %8, i32 0, i32 0
  %10 = load i32, ptr %9, align 8, !tbaa !53
  %11 = icmp eq i32 %7, %10
  br i1 %11, label %12, label %26

12:                                               ; preds = %2
  %13 = load ptr, ptr %3, align 8, !tbaa !39
  %14 = getelementptr inbounds nuw %struct.Vec_Ptr_t_, ptr %13, i32 0, i32 0
  %15 = load i32, ptr %14, align 8, !tbaa !53
  %16 = icmp slt i32 %15, 16
  br i1 %16, label %17, label %19

17:                                               ; preds = %12
  %18 = load ptr, ptr %3, align 8, !tbaa !39
  call void @Vec_PtrGrow(ptr noundef %18, i32 noundef 16)
  br label %25

19:                                               ; preds = %12
  %20 = load ptr, ptr %3, align 8, !tbaa !39
  %21 = load ptr, ptr %3, align 8, !tbaa !39
  %22 = getelementptr inbounds nuw %struct.Vec_Ptr_t_, ptr %21, i32 0, i32 0
  %23 = load i32, ptr %22, align 8, !tbaa !53
  %24 = mul nsw i32 2, %23
  call void @Vec_PtrGrow(ptr noundef %20, i32 noundef %24)
  br label %25

25:                                               ; preds = %19, %17
  br label %26

26:                                               ; preds = %25, %2
  %27 = load ptr, ptr %4, align 8, !tbaa !35
  %28 = load ptr, ptr %3, align 8, !tbaa !39
  %29 = getelementptr inbounds nuw %struct.Vec_Ptr_t_, ptr %28, i32 0, i32 2
  %30 = load ptr, ptr %29, align 8, !tbaa !34
  %31 = load ptr, ptr %3, align 8, !tbaa !39
  %32 = getelementptr inbounds nuw %struct.Vec_Ptr_t_, ptr %31, i32 0, i32 1
  %33 = load i32, ptr %32, align 4, !tbaa !24
  %34 = add nsw i32 %33, 1
  store i32 %34, ptr %32, align 4, !tbaa !24
  %35 = sext i32 %33 to i64
  %36 = getelementptr inbounds ptr, ptr %30, i64 %35
  store ptr %27, ptr %36, align 8, !tbaa !35
  ret void
}

; Function Attrs: inlinehint nounwind uwtable
define internal ptr @Rwr_Regular(ptr noundef %0) #2 {
  %2 = alloca ptr, align 8
  store ptr %0, ptr %2, align 8, !tbaa !21
  %3 = load ptr, ptr %2, align 8, !tbaa !21
  %4 = ptrtoint ptr %3 to i64
  %5 = and i64 %4, -2
  %6 = inttoptr i64 %5 to ptr
  ret ptr %6
}

; Function Attrs: inlinehint nounwind uwtable
define internal i32 @Rwr_IsComplement(ptr noundef %0) #2 {
  %2 = alloca ptr, align 8
  store ptr %0, ptr %2, align 8, !tbaa !21
  %3 = load ptr, ptr %2, align 8, !tbaa !21
  %4 = ptrtoint ptr %3 to i64
  %5 = and i64 %4, 1
  %6 = trunc i64 %5 to i32
  ret i32 %6
}

; Function Attrs: nounwind uwtable
define ptr @Rwr_ManAddNode(ptr noundef %0, ptr noundef %1, ptr noundef %2, i32 noundef %3, i32 noundef %4, i32 noundef %5) #0 {
  %7 = alloca ptr, align 8
  %8 = alloca ptr, align 8
  %9 = alloca ptr, align 8
  %10 = alloca ptr, align 8
  %11 = alloca i32, align 4
  %12 = alloca i32, align 4
  %13 = alloca i32, align 4
  %14 = alloca ptr, align 8
  %15 = alloca i32, align 4
  %16 = alloca i32, align 4
  store ptr %0, ptr %8, align 8, !tbaa !3
  store ptr %1, ptr %9, align 8, !tbaa !21
  store ptr %2, ptr %10, align 8, !tbaa !21
  store i32 %3, ptr %11, align 4, !tbaa !8
  store i32 %4, ptr %12, align 4, !tbaa !8
  store i32 %5, ptr %13, align 4, !tbaa !8
  call void @llvm.lifetime.start.p0(i64 8, ptr %14) #6
  call void @llvm.lifetime.start.p0(i64 4, ptr %15) #6
  %17 = load ptr, ptr %8, align 8, !tbaa !3
  %18 = getelementptr inbounds nuw %struct.Rwr_Man_t_, ptr %17, i32 0, i32 13
  %19 = load i32, ptr %18, align 4, !tbaa !23
  %20 = add nsw i32 %19, 1
  store i32 %20, ptr %18, align 4, !tbaa !23
  %21 = load i32, ptr %11, align 4, !tbaa !8
  %22 = icmp ne i32 %21, 0
  br i1 %22, label %23, label %33

23:                                               ; preds = %6
  %24 = load ptr, ptr %9, align 8, !tbaa !21
  %25 = getelementptr inbounds nuw %struct.Rwr_Node_t_, ptr %24, i32 0, i32 5
  %26 = load i32, ptr %25, align 2
  %27 = and i32 %26, 65535
  %28 = load ptr, ptr %10, align 8, !tbaa !21
  %29 = getelementptr inbounds nuw %struct.Rwr_Node_t_, ptr %28, i32 0, i32 5
  %30 = load i32, ptr %29, align 2
  %31 = and i32 %30, 65535
  %32 = xor i32 %27, %31
  store i32 %32, ptr %15, align 4, !tbaa !8
  br label %72

33:                                               ; preds = %6
  %34 = load ptr, ptr %9, align 8, !tbaa !21
  %35 = call i32 @Rwr_IsComplement(ptr noundef %34)
  %36 = icmp ne i32 %35, 0
  br i1 %36, label %37, label %44

37:                                               ; preds = %33
  %38 = load ptr, ptr %9, align 8, !tbaa !21
  %39 = call ptr @Rwr_Regular(ptr noundef %38)
  %40 = getelementptr inbounds nuw %struct.Rwr_Node_t_, ptr %39, i32 0, i32 5
  %41 = load i32, ptr %40, align 2
  %42 = and i32 %41, 65535
  %43 = xor i32 %42, -1
  br label %50

44:                                               ; preds = %33
  %45 = load ptr, ptr %9, align 8, !tbaa !21
  %46 = call ptr @Rwr_Regular(ptr noundef %45)
  %47 = getelementptr inbounds nuw %struct.Rwr_Node_t_, ptr %46, i32 0, i32 5
  %48 = load i32, ptr %47, align 2
  %49 = and i32 %48, 65535
  br label %50

50:                                               ; preds = %44, %37
  %51 = phi i32 [ %43, %37 ], [ %49, %44 ]
  %52 = load ptr, ptr %10, align 8, !tbaa !21
  %53 = call i32 @Rwr_IsComplement(ptr noundef %52)
  %54 = icmp ne i32 %53, 0
  br i1 %54, label %55, label %62

55:                                               ; preds = %50
  %56 = load ptr, ptr %10, align 8, !tbaa !21
  %57 = call ptr @Rwr_Regular(ptr noundef %56)
  %58 = getelementptr inbounds nuw %struct.Rwr_Node_t_, ptr %57, i32 0, i32 5
  %59 = load i32, ptr %58, align 2
  %60 = and i32 %59, 65535
  %61 = xor i32 %60, -1
  br label %68

62:                                               ; preds = %50
  %63 = load ptr, ptr %10, align 8, !tbaa !21
  %64 = call ptr @Rwr_Regular(ptr noundef %63)
  %65 = getelementptr inbounds nuw %struct.Rwr_Node_t_, ptr %64, i32 0, i32 5
  %66 = load i32, ptr %65, align 2
  %67 = and i32 %66, 65535
  br label %68

68:                                               ; preds = %62, %55
  %69 = phi i32 [ %61, %55 ], [ %67, %62 ]
  %70 = and i32 %51, %69
  %71 = and i32 %70, 65535
  store i32 %71, ptr %15, align 4, !tbaa !8
  br label %72

72:                                               ; preds = %68, %23
  %73 = load ptr, ptr %8, align 8, !tbaa !3
  %74 = getelementptr inbounds nuw %struct.Rwr_Man_t_, ptr %73, i32 0, i32 11
  %75 = load ptr, ptr %74, align 8, !tbaa !46
  %76 = call ptr @Extra_MmFixedEntryFetch(ptr noundef %75)
  store ptr %76, ptr %14, align 8, !tbaa !21
  %77 = load ptr, ptr %8, align 8, !tbaa !3
  %78 = getelementptr inbounds nuw %struct.Rwr_Man_t_, ptr %77, i32 0, i32 8
  %79 = load ptr, ptr %78, align 8, !tbaa !10
  %80 = getelementptr inbounds nuw %struct.Vec_Ptr_t_, ptr %79, i32 0, i32 1
  %81 = load i32, ptr %80, align 4, !tbaa !24
  %82 = load ptr, ptr %14, align 8, !tbaa !21
  %83 = getelementptr inbounds nuw %struct.Rwr_Node_t_, ptr %82, i32 0, i32 0
  store i32 %81, ptr %83, align 8, !tbaa !36
  %84 = load ptr, ptr %14, align 8, !tbaa !21
  %85 = getelementptr inbounds nuw %struct.Rwr_Node_t_, ptr %84, i32 0, i32 1
  store i32 0, ptr %85, align 4, !tbaa !47
  %86 = load i32, ptr %15, align 4, !tbaa !8
  %87 = load ptr, ptr %14, align 8, !tbaa !21
  %88 = getelementptr inbounds nuw %struct.Rwr_Node_t_, ptr %87, i32 0, i32 5
  %89 = load i32, ptr %88, align 2
  %90 = and i32 %86, 65535
  %91 = and i32 %89, -65536
  %92 = or i32 %91, %90
  store i32 %92, ptr %88, align 2
  %93 = load i32, ptr %12, align 4, !tbaa !8
  %94 = load ptr, ptr %14, align 8, !tbaa !21
  %95 = getelementptr inbounds nuw %struct.Rwr_Node_t_, ptr %94, i32 0, i32 5
  %96 = load i32, ptr %95, align 2
  %97 = and i32 %93, 63
  %98 = shl i32 %97, 24
  %99 = and i32 %96, -1056964609
  %100 = or i32 %99, %98
  store i32 %100, ptr %95, align 2
  %101 = load i32, ptr %13, align 4, !tbaa !8
  %102 = load ptr, ptr %14, align 8, !tbaa !21
  %103 = getelementptr inbounds nuw %struct.Rwr_Node_t_, ptr %102, i32 0, i32 5
  %104 = load i32, ptr %103, align 2
  %105 = and i32 %101, 255
  %106 = shl i32 %105, 16
  %107 = and i32 %104, -16711681
  %108 = or i32 %107, %106
  store i32 %108, ptr %103, align 2
  %109 = load ptr, ptr %14, align 8, !tbaa !21
  %110 = getelementptr inbounds nuw %struct.Rwr_Node_t_, ptr %109, i32 0, i32 5
  %111 = load i32, ptr %110, align 2
  %112 = and i32 %111, -1073741825
  %113 = or i32 %112, 0
  store i32 %113, ptr %110, align 2
  %114 = load i32, ptr %11, align 4, !tbaa !8
  %115 = load ptr, ptr %14, align 8, !tbaa !21
  %116 = getelementptr inbounds nuw %struct.Rwr_Node_t_, ptr %115, i32 0, i32 5
  %117 = load i32, ptr %116, align 2
  %118 = and i32 %114, 1
  %119 = shl i32 %118, 31
  %120 = and i32 %117, 2147483647
  %121 = or i32 %120, %119
  store i32 %121, ptr %116, align 2
  %122 = load ptr, ptr %9, align 8, !tbaa !21
  %123 = load ptr, ptr %14, align 8, !tbaa !21
  %124 = getelementptr inbounds nuw %struct.Rwr_Node_t_, ptr %123, i32 0, i32 7
  store ptr %122, ptr %124, align 8, !tbaa !48
  %125 = load ptr, ptr %10, align 8, !tbaa !21
  %126 = load ptr, ptr %14, align 8, !tbaa !21
  %127 = getelementptr inbounds nuw %struct.Rwr_Node_t_, ptr %126, i32 0, i32 8
  store ptr %125, ptr %127, align 8, !tbaa !49
  %128 = load ptr, ptr %14, align 8, !tbaa !21
  %129 = getelementptr inbounds nuw %struct.Rwr_Node_t_, ptr %128, i32 0, i32 9
  store ptr null, ptr %129, align 8, !tbaa !44
  %130 = load ptr, ptr %8, align 8, !tbaa !3
  %131 = getelementptr inbounds nuw %struct.Rwr_Man_t_, ptr %130, i32 0, i32 8
  %132 = load ptr, ptr %131, align 8, !tbaa !10
  %133 = load ptr, ptr %14, align 8, !tbaa !21
  call void @Vec_PtrPush(ptr noundef %132, ptr noundef %133)
  %134 = load i32, ptr %15, align 4, !tbaa !8
  %135 = load ptr, ptr %8, align 8, !tbaa !3
  %136 = getelementptr inbounds nuw %struct.Rwr_Man_t_, ptr %135, i32 0, i32 1
  %137 = load ptr, ptr %136, align 8, !tbaa !30
  %138 = load i32, ptr %15, align 4, !tbaa !8
  %139 = zext i32 %138 to i64
  %140 = getelementptr inbounds nuw i16, ptr %137, i64 %139
  %141 = load i16, ptr %140, align 2, !tbaa !31
  %142 = zext i16 %141 to i32
  %143 = icmp ne i32 %134, %142
  br i1 %143, label %144, label %146

144:                                              ; preds = %72
  %145 = load ptr, ptr %14, align 8, !tbaa !21
  store ptr %145, ptr %7, align 8
  store i32 1, ptr %16, align 4
  br label %173

146:                                              ; preds = %72
  %147 = load ptr, ptr %8, align 8, !tbaa !3
  %148 = getelementptr inbounds nuw %struct.Rwr_Man_t_, ptr %147, i32 0, i32 14
  %149 = load i32, ptr %148, align 8, !tbaa !52
  %150 = add nsw i32 %149, 1
  store i32 %150, ptr %148, align 8, !tbaa !52
  %151 = load ptr, ptr %8, align 8, !tbaa !3
  %152 = getelementptr inbounds nuw %struct.Rwr_Man_t_, ptr %151, i32 0, i32 9
  %153 = load ptr, ptr %152, align 8, !tbaa !42
  %154 = load i32, ptr %15, align 4, !tbaa !8
  %155 = zext i32 %154 to i64
  %156 = getelementptr inbounds nuw ptr, ptr %153, i64 %155
  %157 = load ptr, ptr %156, align 8, !tbaa !21
  %158 = icmp eq ptr %157, null
  br i1 %158, label %159, label %164

159:                                              ; preds = %146
  %160 = load ptr, ptr %8, align 8, !tbaa !3
  %161 = getelementptr inbounds nuw %struct.Rwr_Man_t_, ptr %160, i32 0, i32 15
  %162 = load i32, ptr %161, align 4, !tbaa !26
  %163 = add nsw i32 %162, 1
  store i32 %163, ptr %161, align 4, !tbaa !26
  br label %164

164:                                              ; preds = %159, %146
  %165 = load ptr, ptr %8, align 8, !tbaa !3
  %166 = getelementptr inbounds nuw %struct.Rwr_Man_t_, ptr %165, i32 0, i32 9
  %167 = load ptr, ptr %166, align 8, !tbaa !42
  %168 = load i32, ptr %15, align 4, !tbaa !8
  %169 = zext i32 %168 to i64
  %170 = getelementptr inbounds nuw ptr, ptr %167, i64 %169
  %171 = load ptr, ptr %14, align 8, !tbaa !21
  call void @Rwr_ListAddToTail(ptr noundef %170, ptr noundef %171)
  %172 = load ptr, ptr %14, align 8, !tbaa !21
  store ptr %172, ptr %7, align 8
  store i32 1, ptr %16, align 4
  br label %173

173:                                              ; preds = %164, %144
  call void @llvm.lifetime.end.p0(i64 4, ptr %15) #6
  call void @llvm.lifetime.end.p0(i64 8, ptr %14) #6
  %174 = load ptr, ptr %7, align 8
  ret ptr %174
}