; Function Attrs: nounwind uwtable
define noundef ptr @Rwr_ManAddNode(ptr noundef captures(none) %0, ptr noundef %1, ptr noundef %2, i32 noundef %3, i32 noundef %4, i32 noundef %5) local_unnamed_addr #0 {
  %7 = getelementptr inbounds nuw i8, ptr %0, i64 100
  %8 = load i32, ptr %7, align 4, !tbaa !24
  %9 = add nsw i32 %8, 1
  store i32 %9, ptr %7, align 4, !tbaa !24
  %.not = icmp eq i32 %3, 0
  br i1 %.not, label %16, label %10

10:                                               ; preds = %6
  %11 = getelementptr inbounds nuw i8, ptr %1, i64 14
  %12 = load i32, ptr %11, align 2
  %13 = getelementptr inbounds nuw i8, ptr %2, i64 14
  %14 = load i32, ptr %13, align 2
  %15 = xor i32 %14, %12
  br label %44

16:                                               ; preds = %6
  %17 = ptrtoint ptr %1 to i64
  %18 = and i64 %17, 1
  %.not43 = icmp eq i64 %18, 0
  br i1 %.not43, label %25, label %19

19:                                               ; preds = %16
  %20 = and i64 %17, -2
  %21 = inttoptr i64 %20 to ptr
  %22 = getelementptr inbounds nuw i8, ptr %21, i64 14
  %23 = load i32, ptr %22, align 2
  %24 = xor i32 %23, -1
  br label %28

25:                                               ; preds = %16
  %26 = getelementptr inbounds nuw i8, ptr %1, i64 14
  %27 = load i32, ptr %26, align 2
  br label %28

28:                                               ; preds = %25, %19
  %29 = phi i32 [ %24, %19 ], [ %27, %25 ]
  %30 = ptrtoint ptr %2 to i64
  %31 = and i64 %30, 1
  %.not44 = icmp eq i64 %31, 0
  br i1 %.not44, label %38, label %32

32:                                               ; preds = %28
  %33 = and i64 %30, -2
  %34 = inttoptr i64 %33 to ptr
  %35 = getelementptr inbounds nuw i8, ptr %34, i64 14
  %36 = load i32, ptr %35, align 2
  %37 = xor i32 %36, -1
  br label %41

38:                                               ; preds = %28
  %39 = getelementptr inbounds nuw i8, ptr %2, i64 14
  %40 = load i32, ptr %39, align 2
  br label %41

41:                                               ; preds = %38, %32
  %42 = phi i32 [ %37, %32 ], [ %40, %38 ]
  %43 = and i32 %42, %29
  br label %44

44:                                               ; preds = %41, %10
  %.0.in = phi i32 [ %15, %10 ], [ %43, %41 ]
  %.0 = and i32 %.0.in, 65535
  %45 = getelementptr inbounds nuw i8, ptr %0, i64 88
  %46 = load ptr, ptr %45, align 8, !tbaa !45
  %47 = tail call ptr @Extra_MmFixedEntryFetch(ptr noundef %46) #10
  %48 = getelementptr inbounds nuw i8, ptr %0, i64 64
  %49 = load ptr, ptr %48, align 8, !tbaa !3
  %50 = getelementptr inbounds nuw i8, ptr %49, i64 4
  %51 = load i32, ptr %50, align 4, !tbaa !18
  store i32 %51, ptr %47, align 8, !tbaa !38
  %52 = getelementptr inbounds nuw i8, ptr %47, i64 4
  store i32 0, ptr %52, align 4, !tbaa !28
  %53 = getelementptr inbounds nuw i8, ptr %47, i64 14
  %54 = shl i32 %4, 24
  %55 = and i32 %54, 1056964608
  %56 = shl i32 %5, 16
  %57 = and i32 %56, 16711680
  %58 = or disjoint i32 %55, %57
  %59 = shl i32 %3, 31
  %60 = or disjoint i32 %58, %59
  %61 = or disjoint i32 %.0, %60
  store i32 %61, ptr %53, align 2
  %62 = getelementptr inbounds nuw i8, ptr %47, i64 24
  store ptr %1, ptr %62, align 8, !tbaa !46
  %63 = getelementptr inbounds nuw i8, ptr %47, i64 32
  store ptr %2, ptr %63, align 8, !tbaa !47
  %64 = getelementptr inbounds nuw i8, ptr %47, i64 40
  store ptr null, ptr %64, align 8, !tbaa !48
  %65 = load ptr, ptr %48, align 8, !tbaa !3
  %66 = getelementptr inbounds nuw i8, ptr %65, i64 4
  %67 = load i32, ptr %66, align 4, !tbaa !18
  %68 = load i32, ptr %65, align 8, !tbaa !49
  %69 = icmp eq i32 %67, %68
  br i1 %69, label %70, label %.Vec_PtrGrow.exit11_crit_edge.i

.Vec_PtrGrow.exit11_crit_edge.i:                  ; preds = %44
  %.phi.trans.insert.i = getelementptr inbounds nuw i8, ptr %65, i64 8
  %.pre.i = load ptr, ptr %.phi.trans.insert.i, align 8, !tbaa !20
  br label %Vec_PtrPush.exit

70:                                               ; preds = %44
  %71 = icmp slt i32 %67, 16
  br i1 %71, label %72, label %80

72:                                               ; preds = %70
  %73 = getelementptr inbounds nuw i8, ptr %65, i64 8
  %74 = load ptr, ptr %73, align 8, !tbaa !20
  %.not9.i.i = icmp eq ptr %74, null
  br i1 %.not9.i.i, label %77, label %75

75:                                               ; preds = %72
  %76 = tail call dereferenceable_or_null(128) ptr @realloc(ptr noundef nonnull %74, i64 noundef 128) #11
  br label %Vec_PtrGrow.exit.i

77:                                               ; preds = %72
  %78 = tail call noalias dereferenceable_or_null(128) ptr @malloc(i64 noundef 128) #12
  br label %Vec_PtrGrow.exit.i

Vec_PtrGrow.exit.i:                               ; preds = %77, %75
  %79 = phi ptr [ %76, %75 ], [ %78, %77 ]
  store ptr %79, ptr %73, align 8, !tbaa !20
  store i32 16, ptr %65, align 8, !tbaa !49
  br label %Vec_PtrPush.exit

80:                                               ; preds = %70
  %81 = shl nuw nsw i32 %67, 1
  %82 = getelementptr inbounds nuw i8, ptr %65, i64 8
  %83 = load ptr, ptr %82, align 8, !tbaa !20
  %.not9.i10.i = icmp eq ptr %83, null
  %84 = zext nneg i32 %81 to i64
  %85 = shl nuw nsw i64 %84, 3
  br i1 %.not9.i10.i, label %88, label %86

86:                                               ; preds = %80
  %87 = tail call ptr @realloc(ptr noundef nonnull %83, i64 noundef %85) #11
  br label %90

88:                                               ; preds = %80
  %89 = tail call noalias ptr @malloc(i64 noundef %85) #12
  br label %90

90:                                               ; preds = %88, %86
  %91 = phi ptr [ %87, %86 ], [ %89, %88 ]
  store ptr %91, ptr %82, align 8, !tbaa !20
  store i32 %81, ptr %65, align 8, !tbaa !49
  br label %Vec_PtrPush.exit

Vec_PtrPush.exit:                                 ; preds = %.Vec_PtrGrow.exit11_crit_edge.i, %Vec_PtrGrow.exit.i, %90
  %92 = phi ptr [ %.pre.i, %.Vec_PtrGrow.exit11_crit_edge.i ], [ %91, %90 ], [ %79, %Vec_PtrGrow.exit.i ]
  %93 = load i32, ptr %66, align 4, !tbaa !18
  %94 = add nsw i32 %93, 1
  store i32 %94, ptr %66, align 4, !tbaa !18
  %95 = sext i32 %93 to i64
  %96 = getelementptr inbounds ptr, ptr %92, i64 %95
  store ptr %47, ptr %96, align 8, !tbaa !21
  %97 = getelementptr inbounds nuw i8, ptr %0, i64 8
  %98 = load ptr, ptr %97, align 8, !tbaa !35
  %99 = zext nneg i32 %.0 to i64
  %100 = getelementptr inbounds nuw i16, ptr %98, i64 %99
  %101 = load i16, ptr %100, align 2, !tbaa !36
  %102 = trunc i32 %.0.in to i16
  %.not45 = icmp eq i16 %101, %102
  br i1 %.not45, label %103, label %117

103:                                              ; preds = %Vec_PtrPush.exit
  %104 = getelementptr inbounds nuw i8, ptr %0, i64 104
  %105 = load i32, ptr %104, align 8, !tbaa !50
  %106 = add nsw i32 %105, 1
  store i32 %106, ptr %104, align 8, !tbaa !50
  %107 = getelementptr inbounds nuw i8, ptr %0, i64 72
  %108 = load ptr, ptr %107, align 8, !tbaa !42
  %109 = getelementptr inbounds nuw ptr, ptr %108, i64 %99
  %110 = load ptr, ptr %109, align 8, !tbaa !43
  %111 = icmp eq ptr %110, null
  br i1 %111, label %112, label %116

112:                                              ; preds = %103
  %113 = getelementptr inbounds nuw i8, ptr %0, i64 108
  %114 = load i32, ptr %113, align 4, !tbaa !25
  %115 = add nsw i32 %114, 1
  store i32 %115, ptr %113, align 4, !tbaa !25
  br label %116

116:                                              ; preds = %112, %103
  tail call void @Rwr_ListAddToTail(ptr noundef nonnull %109, ptr noundef nonnull %47) #10
  br label %117

117:                                              ; preds = %Vec_PtrPush.exit, %116
  ret ptr %47
}